; Function Attrs: mustprogress uwtable
define internal void @_ZN6duckdbL22CurrentSchemasFunctionERNS_9DataChunkERNS_15ExpressionStateERNS_6VectorE(ptr nonnull readnone align 8 captures(none) %0, ptr noundef nonnull readonly align 8 captures(none) dereferenceable(176) %1, ptr noundef nonnull align 8 dereferenceable(104) %2) #0 {
  %4 = getelementptr inbounds nuw i8, ptr %1, i64 8
  %5 = load ptr, ptr %4, align 8, !tbaa !43
  %6 = tail call noundef nonnull align 8 dereferenceable(417) ptr @_ZNK6duckdb14BaseExpression4CastINS_23BoundFunctionExpressionEEERKT_v(ptr noundef nonnull align 8 dereferenceable(56) %5)
  %7 = getelementptr inbounds nuw i8, ptr %6, i64 408
  %8 = tail call noundef ptr @_ZNK6duckdb10unique_ptrINS_12FunctionDataESt14default_deleteIS1_ELb1EEptEv(ptr noundef nonnull align 8 dereferenceable(8) %7)
  %9 = getelementptr inbounds nuw i8, ptr %8, i64 8
  tail call void @_ZN6duckdb6Vector9ReferenceERKNS_5ValueE(ptr noundef nonnull align 8 dereferenceable(104) %2, ptr noundef nonnull align 8 dereferenceable(64) %9)
  ret void
}